target datalayout = "e-m:e-p270:32:32-p271:32:32-p272:64:64-i64:64-i128:128-f80:128-n8:16:32:64-S128"
target triple = "x86_64-pc-linux-gnu"

@_ZTISt9exception = external constant ptr
@_ZN12_GLOBAL__N_112errorMessageE = internal global [1024 x i8] zeroinitializer, align 16

; Function Attrs: noinline noreturn nounwind uwtable
define linkonce_odr hidden void @__clang_call_terminate(ptr noundef %0) #11 comdat {
  %2 = call ptr @__cxa_begin_catch(ptr %0) #3
  call void @_ZSt9terminatev() #18
  unreachable
}

; Function Attrs: mustprogress nounwind uwtable
define internal void @_ZN12_GLOBAL__N_115setErrorMessageERKSt9exception(ptr noundef nonnull align 8 dereferenceable(8) %0) #4 {
  %2 = alloca ptr, align 8
  store ptr %0, ptr %2, align 8, !tbaa !23
  %3 = load ptr, ptr %2, align 8, !tbaa !23
  %4 = load ptr, ptr %3, align 8, !tbaa !30
  %5 = getelementptr inbounds ptr, ptr %4, i64 2
  %6 = load ptr, ptr %5, align 8
  %7 = call noundef ptr %6(ptr noundef nonnull align 8 dereferenceable(8) %3) #3
  %8 = call ptr @strncpy(ptr noundef @_ZN12_GLOBAL__N_112errorMessageE, ptr noundef %7, i64 noundef 1023) #3
  store i8 0, ptr getelementptr inbounds ([1024 x i8], ptr @_ZN12_GLOBAL__N_112errorMessageE, i64 0, i64 1023), align 1, !tbaa !32
  ret void
}

; Function Attrs: inlinehint mustprogress nounwind uwtable
define internal noundef ptr @_ZN12_GLOBAL__N_17outfileEP18ImfTiledOutputFile(ptr noundef %0) #6 {
  %2 = alloca ptr, align 8
  store ptr %0, ptr %2, align 8, !tbaa !127
  %3 = load ptr, ptr %2, align 8, !tbaa !127
  ret ptr %3
}

; Function Attrs: mustprogress uwtable
define i32 @ImfTiledOutputWriteTiles(ptr noundef %0, i32 noundef %1, i32 noundef %2, i32 noundef %3, i32 noundef %4, i32 noundef %5, i32 noundef %6) #7 personality ptr @__gxx_personality_v0 {
  %8 = alloca i32, align 4
  %9 = alloca ptr, align 8
  %10 = alloca i32, align 4
  %11 = alloca i32, align 4
  %12 = alloca i32, align 4
  %13 = alloca i32, align 4
  %14 = alloca i32, align 4
  %15 = alloca i32, align 4
  %16 = alloca ptr, align 8
  %17 = alloca i32, align 4
  %18 = alloca ptr, align 8
  store ptr %0, ptr %9, align 8, !tbaa !127
  store i32 %1, ptr %10, align 4, !tbaa !16
  store i32 %2, ptr %11, align 4, !tbaa !16
  store i32 %3, ptr %12, align 4, !tbaa !16
  store i32 %4, ptr %13, align 4, !tbaa !16
  store i32 %5, ptr %14, align 4, !tbaa !16
  store i32 %6, ptr %15, align 4, !tbaa !16
  %19 = load ptr, ptr %9, align 8, !tbaa !127
  %20 = invoke noundef ptr @_ZN12_GLOBAL__N_17outfileEP18ImfTiledOutputFile(ptr noundef %19)
          to label %21 unwind label %29

21:                                               ; preds = %7
  %22 = load i32, ptr %10, align 4, !tbaa !16
  %23 = load i32, ptr %11, align 4, !tbaa !16
  %24 = load i32, ptr %12, align 4, !tbaa !16
  %25 = load i32, ptr %13, align 4, !tbaa !16
  %26 = load i32, ptr %14, align 4, !tbaa !16
  %27 = load i32, ptr %15, align 4, !tbaa !16
  invoke void @_ZN7Imf_3_419TiledRgbaOutputFile10writeTilesEiiiiii(ptr noundef nonnull align 8 dereferenceable(24) %20, i32 noundef %22, i32 noundef %23, i32 noundef %24, i32 noundef %25, i32 noundef %26, i32 noundef %27)
          to label %28 unwind label %29

28:                                               ; preds = %21
  store i32 1, ptr %8, align 4
  br label %48

29:                                               ; preds = %21, %7
  %30 = landingpad { ptr, i32 }
          catch ptr @_ZTISt9exception
  %31 = extractvalue { ptr, i32 } %30, 0
  store ptr %31, ptr %16, align 8
  %32 = extractvalue { ptr, i32 } %30, 1
  store i32 %32, ptr %17, align 4
  br label %33

33:                                               ; preds = %29
  %34 = load i32, ptr %17, align 4
  %35 = call i32 @llvm.eh.typeid.for.p0(ptr @_ZTISt9exception) #3
  %36 = icmp eq i32 %34, %35
  br i1 %36, label %37, label %50

37:                                               ; preds = %33
  call void @llvm.lifetime.start.p0(i64 8, ptr %18) #3
  %38 = load ptr, ptr %16, align 8
  %39 = call ptr @__cxa_begin_catch(ptr %38) #3
  store ptr %39, ptr %18, align 8
  %40 = load ptr, ptr %18, align 8, !tbaa !23
  invoke void @_ZN12_GLOBAL__N_115setErrorMessageERKSt9exception(ptr noundef nonnull align 8 dereferenceable(8) %40)
          to label %41 unwind label %42

41:                                               ; preds = %37
  store i32 0, ptr %8, align 4
  call void @__cxa_end_catch()
  call void @llvm.lifetime.end.p0(i64 8, ptr %18) #3
  br label %48

42:                                               ; preds = %37
  %43 = landingpad { ptr, i32 }
          cleanup
  %44 = extractvalue { ptr, i32 } %43, 0
  store ptr %44, ptr %16, align 8
  %45 = extractvalue { ptr, i32 } %43, 1
  store i32 %45, ptr %17, align 4
  invoke void @__cxa_end_catch()
          to label %46 unwind label %55

46:                                               ; preds = %42
  call void @llvm.lifetime.end.p0(i64 8, ptr %18) #3
  br label %50

47:                                               ; No predecessors!
  unreachable

48:                                               ; preds = %41, %28
  %49 = load i32, ptr %8, align 4
  ret i32 %49

50:                                               ; preds = %46, %33
  %51 = load ptr, ptr %16, align 8
  %52 = load i32, ptr %17, align 4
  %53 = insertvalue { ptr, i32 } poison, ptr %51, 0
  %54 = insertvalue { ptr, i32 } %53, i32 %52, 1
  resume { ptr, i32 } %54

55:                                               ; preds = %42
  %56 = landingpad { ptr, i32 }
          catch ptr null
  %57 = extractvalue { ptr, i32 } %56, 0
  call void @__clang_call_terminate(ptr %57) #18
  unreachable
}